; Function Attrs: nounwind uwtable
define void @duckdb_je_hpa_shard_set_deferral_allowed(ptr noundef %0, ptr noundef %1, i1 noundef zeroext %2) local_unnamed_addr #1 {
  %4 = zext i1 %2 to i8
  %5 = getelementptr inbounds nuw i8, ptr %1, i64 136
  %6 = tail call i32 @pthread_mutex_trylock(ptr noundef nonnull %5) #8
  %.not.i = icmp eq i32 %6, 0
  br i1 %.not.i, label %10, label %7

7:                                                ; preds = %3
  %8 = getelementptr inbounds nuw i8, ptr %1, i64 64
  tail call void @duckdb_je_malloc_mutex_lock_slow(ptr noundef nonnull %8) #8
  %9 = getelementptr inbounds nuw i8, ptr %1, i64 128
  store atomic i8 1, ptr %9 monotonic, align 1
  br label %10

10:                                               ; preds = %7, %3
  %11 = getelementptr inbounds nuw i8, ptr %1, i64 120
  %12 = load i64, ptr %11, align 8, !tbaa !56
  %13 = add i64 %12, 1
  store i64 %13, ptr %11, align 8, !tbaa !56
  %14 = getelementptr inbounds nuw i8, ptr %1, i64 112
  %15 = load ptr, ptr %14, align 8, !tbaa !60
  %.not.i.i = icmp eq ptr %15, %0
  br i1 %.not.i.i, label %malloc_mutex_lock.exit, label %16

16:                                               ; preds = %10
  store ptr %0, ptr %14, align 8, !tbaa !60
  %17 = getelementptr inbounds nuw i8, ptr %1, i64 104
  %18 = load i64, ptr %17, align 8, !tbaa !61
  %19 = add i64 %18, 1
  store i64 %19, ptr %17, align 8, !tbaa !61
  br label %malloc_mutex_lock.exit

malloc_mutex_lock.exit:                           ; preds = %10, %16
  %20 = getelementptr inbounds nuw i8, ptr %1, i64 5644
  %21 = load i8, ptr %20, align 4, !tbaa !93, !range !54, !noundef !55
  %22 = trunc nuw i8 %21 to i1
  store i8 %4, ptr %20, align 4, !tbaa !93
  %.not = xor i1 %22, true
  %brmerge = or i1 %2, %.not
  br i1 %brmerge, label %24, label %23

23:                                               ; preds = %malloc_mutex_lock.exit
  tail call fastcc void @hpa_shard_maybe_do_deferred_work(ptr noundef %0, ptr noundef nonnull %1, i1 noundef zeroext true)
  br label %24

24:                                               ; preds = %malloc_mutex_lock.exit, %23
  %25 = getelementptr inbounds nuw i8, ptr %1, i64 128
  store atomic i8 0, ptr %25 monotonic, align 1
  %26 = tail call i32 @pthread_mutex_unlock(ptr noundef nonnull %5) #8
  ret void
}